(lp0
(dp1
Vdomain
p2
V.baidu.com
p3
sVname
p4
VBDUSS
p5
sVexpires
p6
V\u5468\u65e5, 27 7\u6708 2025 09:23:02 GMT
p7
sVvalue
p8
V1pxOGZxRjR3eE9QOEpwMmM0cHVnSndsQ3lHZm9yUHZTeDY0U0JBMHZkTDJhRHBaSVFBQUFBJCQAAAAAAAAAAAEAAACoFKIicGx1czAzMTgAAAAAAAAAAAAAAAAAAAAAAAAAAAAAAAAAAAAAAAAAAAAAAAAAAAAAAAAAAAAAAAAAAAAAAAAAAPbbEln22xJZd
p9
sVexpiry
p10
I1753608182
sVpath
p11
V/
p12
sVhttponly
p13
I01
sVsecure
p14
I00
sa(dp15
Vdomain
p16
V.index.baidu.com
p17
sVname
p18
VFP_UID
p19
sVexpires
p20
V\u5468\u516d, 31 12\u6708 2050 00:00:00 GMT
p21
sVvalue
p22
V3f63f434ea61be1fa6d76f90cc5aaaee
p23
sVexpiry
p24
I2556057600
sVpath
p25
g12
sVhttponly
p26
I00
sVsecure
p27
I00
sa(dp28
Vdomain
p29
Vindex.baidu.com
p30
sVname
p31
Vsearchtips
p32
sVexpires
p33
V\u5468\u516d, 05 5\u6708 2018 09:22:59 GMT
p34
sVvalue
p35
V1
p36
sVexpiry
p37
I1525512179
sVpath
p38
g12
sVhttponly
p39
I00
sVsecure
p40
I00
sa(dp41
Vdomain
p42
V.index.baidu.com
p43
sVname
p44
VHm_lpvt_d101ea4d2a5c67dab98251f0b5de24dc
p45
sVvalue
p46
V1494408178
p47
sVpath
p48
g12
sVhttponly
p49
I00
sVsecure
p50
I00
sa(dp51
Vdomain
p52
V.index.baidu.com
p53
sVname
p54
VHm_lvt_d101ea4d2a5c67dab98251f0b5de24dc
p55
sVexpires
p56
V\u5468\u56db, 10 5\u6708 2018 09:22:58 GMT
p57
sVvalue
p58
V1494407823,1494407997,1494408153,1494408178
p59
sVexpiry
p60
I1525944178
sVpath
p61
g12
sVhttponly
p62
I00
sVsecure
p63
I00
sa(dp64
Vdomain
p65
V.baidu.com
p66
sVname
p67
VBAIDUID
p68
sVexpires
p69
V\u5468\u56db, 10 5\u6708 2018 09:22:57 GMT
p70
sVvalue
p71
VA8EF00B0C9C3BA5BBD7099B2F786EB40:FG=1
p72
sVexpiry
p73
I1525944177
sVpath
p74
g12
sVhttponly
p75
I00
sVsecure
p76
I00
sa.